target datalayout = "e-m:e-p270:32:32-p271:32:32-p272:64:64-i64:64-i128:128-f80:128-n8:16:32:64-S128"
target triple = "x86_64-pc-linux-gnu"

; Function Attrs: alwaysinline nounwind willreturn memory(none) uwtable
define internal i32 @av_clip_c(i32 noundef %0, i32 noundef %1, i32 noundef %2) #3 {
  %4 = alloca i32, align 4
  %5 = alloca i32, align 4
  %6 = alloca i32, align 4
  %7 = alloca i32, align 4
  store i32 %0, ptr %5, align 4, !tbaa !9
  store i32 %1, ptr %6, align 4, !tbaa !9
  store i32 %2, ptr %7, align 4, !tbaa !9
  %8 = load i32, ptr %5, align 4, !tbaa !9
  %9 = load i32, ptr %6, align 4, !tbaa !9
  %10 = icmp slt i32 %8, %9
  br i1 %10, label %11, label %13

11:                                               ; preds = %3
  %12 = load i32, ptr %6, align 4, !tbaa !9
  store i32 %12, ptr %4, align 4
  br label %21

13:                                               ; preds = %3
  %14 = load i32, ptr %5, align 4, !tbaa !9
  %15 = load i32, ptr %7, align 4, !tbaa !9
  %16 = icmp sgt i32 %14, %15
  br i1 %16, label %17, label %19

17:                                               ; preds = %13
  %18 = load i32, ptr %7, align 4, !tbaa !9
  store i32 %18, ptr %4, align 4
  br label %21

19:                                               ; preds = %13
  %20 = load i32, ptr %5, align 4, !tbaa !9
  store i32 %20, ptr %4, align 4
  br label %21

21:                                               ; preds = %19, %17, %11
  %22 = load i32, ptr %4, align 4
  ret i32 %22
}

; Function Attrs: alwaysinline nounwind uwtable
define internal float @scale(float noundef %0, float noundef %1) #12 {
  %3 = alloca float, align 4
  %4 = alloca float, align 4
  store float %0, ptr %3, align 4, !tbaa !99
  store float %1, ptr %4, align 4, !tbaa !99
  %5 = load float, ptr %3, align 4, !tbaa !99
  %6 = call nsz float @llvm.fmuladd.f32(float 5.000000e-01, float %5, float 5.000000e-01)
  %7 = load float, ptr %4, align 4, !tbaa !99
  %8 = fsub nsz float %7, 1.000000e+00
  %9 = fmul nsz float %6, %8
  ret float %9
}

; Function Attrs: alwaysinline nounwind willreturn memory(none) uwtable
define internal float @av_clipf_c(float noundef %0, float noundef %1, float noundef %2) #3 {
  %4 = alloca float, align 4
  %5 = alloca float, align 4
  %6 = alloca float, align 4
  store float %0, ptr %4, align 4, !tbaa !99
  store float %1, ptr %5, align 4, !tbaa !99
  store float %2, ptr %6, align 4, !tbaa !99
  %7 = load float, ptr %4, align 4, !tbaa !99
  %8 = load float, ptr %5, align 4, !tbaa !99
  %9 = fcmp nsz ogt float %7, %8
  br i1 %9, label %10, label %12

10:                                               ; preds = %3
  %11 = load float, ptr %4, align 4, !tbaa !99
  br label %14

12:                                               ; preds = %3
  %13 = load float, ptr %5, align 4, !tbaa !99
  br label %14

14:                                               ; preds = %12, %10
  %15 = phi nsz float [ %11, %10 ], [ %13, %12 ]
  %16 = load float, ptr %6, align 4, !tbaa !99
  %17 = fcmp nsz ogt float %15, %16
  br i1 %17, label %18, label %20

18:                                               ; preds = %14
  %19 = load float, ptr %6, align 4, !tbaa !99
  br label %30

20:                                               ; preds = %14
  %21 = load float, ptr %4, align 4, !tbaa !99
  %22 = load float, ptr %5, align 4, !tbaa !99
  %23 = fcmp nsz ogt float %21, %22
  br i1 %23, label %24, label %26

24:                                               ; preds = %20
  %25 = load float, ptr %4, align 4, !tbaa !99
  br label %28

26:                                               ; preds = %20
  %27 = load float, ptr %5, align 4, !tbaa !99
  br label %28

28:                                               ; preds = %26, %24
  %29 = phi nsz float [ %25, %24 ], [ %27, %26 ]
  br label %30

30:                                               ; preds = %28, %18
  %31 = phi nsz float [ %19, %18 ], [ %29, %28 ]
  ret float %31
}

; Function Attrs: nounwind uwtable
define internal i32 @xyz_to_mercator(ptr noundef %0, ptr noundef %1, i32 noundef %2, i32 noundef %3, ptr noundef %4, ptr noundef %5, ptr noundef %6, ptr noundef %7) #0 {
  %9 = alloca ptr, align 8
  %10 = alloca ptr, align 8
  %11 = alloca i32, align 4
  %12 = alloca i32, align 4
  %13 = alloca ptr, align 8
  %14 = alloca ptr, align 8
  %15 = alloca ptr, align 8
  %16 = alloca ptr, align 8
  %17 = alloca float, align 4
  %18 = alloca float, align 4
  %19 = alloca float, align 4
  %20 = alloca float, align 4
  %21 = alloca i32, align 4
  %22 = alloca i32, align 4
  %23 = alloca i32, align 4
  %24 = alloca i32, align 4
  %25 = alloca i32, align 4
  store ptr %0, ptr %9, align 8, !tbaa !4
  store ptr %1, ptr %10, align 8, !tbaa !188
  store i32 %2, ptr %11, align 4, !tbaa !9
  store i32 %3, ptr %12, align 4, !tbaa !9
  store ptr %4, ptr %13, align 8, !tbaa !21
  store ptr %5, ptr %14, align 8, !tbaa !21
  store ptr %6, ptr %15, align 8, !tbaa !188
  store ptr %7, ptr %16, align 8, !tbaa !188
  call void @llvm.lifetime.start.p0(i64 4, ptr %17) #13
  %26 = load ptr, ptr %10, align 8, !tbaa !188
  %27 = getelementptr inbounds float, ptr %26, i64 0
  %28 = load float, ptr %27, align 4, !tbaa !99
  %29 = load ptr, ptr %10, align 8, !tbaa !188
  %30 = getelementptr inbounds float, ptr %29, i64 2
  %31 = load float, ptr %30, align 4, !tbaa !99
  %32 = call nsz float @llvm.atan2.f32(float %28, float %31)
  %33 = fpext nsz float %32 to double
  %34 = fdiv nsz double %33, 0x400921FB54442D18
  %35 = fptrunc nsz double %34 to float
  store float %35, ptr %17, align 4, !tbaa !99
  call void @llvm.lifetime.start.p0(i64 4, ptr %18) #13
  %36 = load ptr, ptr %10, align 8, !tbaa !188
  %37 = getelementptr inbounds float, ptr %36, i64 1
  %38 = load float, ptr %37, align 4, !tbaa !99
  %39 = fadd nsz float 1.000000e+00, %38
  %40 = load ptr, ptr %10, align 8, !tbaa !188
  %41 = getelementptr inbounds float, ptr %40, i64 1
  %42 = load float, ptr %41, align 4, !tbaa !99
  %43 = fsub nsz float 1.000000e+00, %42
  %44 = fdiv nsz float %39, %43
  %45 = call nsz float @llvm.log.f32(float %44)
  %46 = fpext nsz float %45 to double
  %47 = fdiv nsz double %46, 0x401921FB54442D18
  %48 = fptrunc nsz double %47 to float
  %49 = call nsz float @av_clipf_c(float noundef %48, float noundef -1.000000e+00, float noundef 1.000000e+00) #14
  store float %49, ptr %18, align 4, !tbaa !99
  call void @llvm.lifetime.start.p0(i64 4, ptr %19) #13
  %50 = load float, ptr %17, align 4, !tbaa !99
  %51 = load i32, ptr %11, align 4, !tbaa !9
  %52 = sitofp i32 %51 to float
  %53 = call nsz float @scale(float noundef %50, float noundef %52)
  store float %53, ptr %19, align 4, !tbaa !99
  call void @llvm.lifetime.start.p0(i64 4, ptr %20) #13
  %54 = load float, ptr %18, align 4, !tbaa !99
  %55 = load i32, ptr %12, align 4, !tbaa !9
  %56 = sitofp i32 %55 to float
  %57 = call nsz float @scale(float noundef %54, float noundef %56)
  store float %57, ptr %20, align 4, !tbaa !99
  call void @llvm.lifetime.start.p0(i64 4, ptr %21) #13
  %58 = load float, ptr %19, align 4, !tbaa !99
  %59 = call nsz float @llvm.floor.f32(float %58)
  %60 = fptosi float %59 to i32
  store i32 %60, ptr %21, align 4, !tbaa !9
  call void @llvm.lifetime.start.p0(i64 4, ptr %22) #13
  %61 = load float, ptr %20, align 4, !tbaa !99
  %62 = call nsz float @llvm.floor.f32(float %61)
  %63 = fptosi float %62 to i32
  store i32 %63, ptr %22, align 4, !tbaa !9
  %64 = load float, ptr %19, align 4, !tbaa !99
  %65 = load i32, ptr %21, align 4, !tbaa !9
  %66 = sitofp i32 %65 to float
  %67 = fsub nsz float %64, %66
  %68 = load ptr, ptr %15, align 8, !tbaa !188
  store float %67, ptr %68, align 4, !tbaa !99
  %69 = load float, ptr %20, align 4, !tbaa !99
  %70 = load i32, ptr %22, align 4, !tbaa !9
  %71 = sitofp i32 %70 to float
  %72 = fsub nsz float %69, %71
  %73 = load ptr, ptr %16, align 8, !tbaa !188
  store float %72, ptr %73, align 4, !tbaa !99
  call void @llvm.lifetime.start.p0(i64 4, ptr %23) #13
  store i32 0, ptr %23, align 4, !tbaa !9
  br label %74

74:                                               ; preds = %118, %8
  %75 = load i32, ptr %23, align 4, !tbaa !9
  %76 = icmp slt i32 %75, 4
  br i1 %76, label %78, label %77

77:                                               ; preds = %74
  store i32 2, ptr %24, align 4
  call void @llvm.lifetime.end.p0(i64 4, ptr %23) #13
  br label %121

78:                                               ; preds = %74
  call void @llvm.lifetime.start.p0(i64 4, ptr %25) #13
  store i32 0, ptr %25, align 4, !tbaa !9
  br label %79

79:                                               ; preds = %114, %78
  %80 = load i32, ptr %25, align 4, !tbaa !9
  %81 = icmp slt i32 %80, 4
  br i1 %81, label %83, label %82

82:                                               ; preds = %79
  store i32 5, ptr %24, align 4
  call void @llvm.lifetime.end.p0(i64 4, ptr %25) #13
  br label %117

83:                                               ; preds = %79
  %84 = load i32, ptr %21, align 4, !tbaa !9
  %85 = load i32, ptr %25, align 4, !tbaa !9
  %86 = add nsw i32 %84, %85
  %87 = sub nsw i32 %86, 1
  %88 = load i32, ptr %11, align 4, !tbaa !9
  %89 = sub nsw i32 %88, 1
  %90 = call i32 @av_clip_c(i32 noundef %87, i32 noundef 0, i32 noundef %89) #14
  %91 = trunc i32 %90 to i16
  %92 = load ptr, ptr %13, align 8, !tbaa !21
  %93 = load i32, ptr %23, align 4, !tbaa !9
  %94 = sext i32 %93 to i64
  %95 = getelementptr inbounds [4 x i16], ptr %92, i64 %94
  %96 = load i32, ptr %25, align 4, !tbaa !9
  %97 = sext i32 %96 to i64
  %98 = getelementptr inbounds [4 x i16], ptr %95, i64 0, i64 %97
  store i16 %91, ptr %98, align 2, !tbaa !23
  %99 = load i32, ptr %22, align 4, !tbaa !9
  %100 = load i32, ptr %23, align 4, !tbaa !9
  %101 = add nsw i32 %99, %100
  %102 = sub nsw i32 %101, 1
  %103 = load i32, ptr %12, align 4, !tbaa !9
  %104 = sub nsw i32 %103, 1
  %105 = call i32 @av_clip_c(i32 noundef %102, i32 noundef 0, i32 noundef %104) #14
  %106 = trunc i32 %105 to i16
  %107 = load ptr, ptr %14, align 8, !tbaa !21
  %108 = load i32, ptr %23, align 4, !tbaa !9
  %109 = sext i32 %108 to i64
  %110 = getelementptr inbounds [4 x i16], ptr %107, i64 %109
  %111 = load i32, ptr %25, align 4, !tbaa !9
  %112 = sext i32 %111 to i64
  %113 = getelementptr inbounds [4 x i16], ptr %110, i64 0, i64 %112
  store i16 %106, ptr %113, align 2, !tbaa !23
  br label %114

114:                                              ; preds = %83
  %115 = load i32, ptr %25, align 4, !tbaa !9
  %116 = add nsw i32 %115, 1
  store i32 %116, ptr %25, align 4, !tbaa !9
  br label %79, !llvm.loop !214

117:                                              ; preds = %82
  br label %118

118:                                              ; preds = %117
  %119 = load i32, ptr %23, align 4, !tbaa !9
  %120 = add nsw i32 %119, 1
  store i32 %120, ptr %23, align 4, !tbaa !9
  br label %74, !llvm.loop !215

121:                                              ; preds = %77
  store i32 1, ptr %24, align 4
  call void @llvm.lifetime.end.p0(i64 4, ptr %22) #13
  call void @llvm.lifetime.end.p0(i64 4, ptr %21) #13
  call void @llvm.lifetime.end.p0(i64 4, ptr %20) #13
  call void @llvm.lifetime.end.p0(i64 4, ptr %19) #13
  call void @llvm.lifetime.end.p0(i64 4, ptr %18) #13
  call void @llvm.lifetime.end.p0(i64 4, ptr %17) #13
  ret i32 1
}