; Function Attrs: nofree norecurse nosync nounwind memory(argmem: readwrite) uwtable
define internal noundef i32 @xyz_to_mercator(ptr readnone captures(none) %0, ptr noundef readonly captures(none) %1, i32 noundef %2, i32 noundef %3, ptr noundef writeonly captures(none) %4, ptr noundef writeonly captures(none) %5, ptr noundef writeonly captures(none) initializes((0, 4)) %6, ptr noundef writeonly captures(none) initializes((0, 4)) %7) #1 {
  %9 = load float, ptr %1, align 4, !tbaa !49
  %10 = getelementptr inbounds nuw i8, ptr %1, i64 8
  %11 = load float, ptr %10, align 4, !tbaa !49
  %12 = tail call nsz float @llvm.atan2.f32(float %9, float %11)
  %13 = fpext nsz float %12 to double
  %14 = fdiv nsz double %13, 0x400921FB54442D18
  %15 = fptrunc nsz double %14 to float
  %16 = getelementptr inbounds nuw i8, ptr %1, i64 4
  %17 = load float, ptr %16, align 4, !tbaa !49
  %18 = fadd nsz float %17, 1.000000e+00
  %19 = fsub nsz float 1.000000e+00, %17
  %20 = fdiv nsz float %18, %19
  %21 = tail call nsz float @llvm.log.f32(float %20)
  %22 = fpext nsz float %21 to double
  %23 = fdiv nsz double %22, 0x401921FB54442D18
  %24 = fptrunc nsz double %23 to float
  %25 = fcmp nsz ogt float %24, -1.000000e+00
  %26 = select nsz i1 %25, float %24, float -1.000000e+00
  %27 = fcmp nsz ogt float %26, 1.000000e+00
  %..i34 = select nsz i1 %27, float 1.000000e+00, float %26
  %28 = sitofp i32 %2 to float
  %29 = tail call nsz float @llvm.fmuladd.f32(float %15, float 5.000000e-01, float 5.000000e-01)
  %30 = fadd nsz float %28, -1.000000e+00
  %31 = fmul nsz float %30, %29
  %32 = sitofp i32 %3 to float
  %33 = tail call nsz float @llvm.fmuladd.f32(float %..i34, float 5.000000e-01, float 5.000000e-01)
  %34 = fadd nsz float %32, -1.000000e+00
  %35 = fmul nsz float %34, %33
  %36 = tail call nsz float @llvm.floor.f32(float %31)
  %37 = fptosi float %36 to i32
  %38 = tail call nsz float @llvm.floor.f32(float %35)
  %39 = fptosi float %38 to i32
  %40 = sitofp i32 %37 to float
  %41 = fsub nsz float %31, %40
  store float %41, ptr %6, align 4, !tbaa !49
  %42 = sitofp i32 %39 to float
  %43 = fsub nsz float %35, %42
  store float %43, ptr %7, align 4, !tbaa !49
  %44 = sext i32 %37 to i64
  %45 = sext i32 %39 to i64
  br label %.preheader

.preheader:                                       ; preds = %8, %53
  %indvars.iv39 = phi i64 [ 0, %8 ], [ %indvars.iv.next40, %53 ]
  %46 = add nsw i64 %indvars.iv39, %45
  %47 = trunc nsw i64 %46 to i32
  %48 = tail call i32 @llvm.smin.i32(i32 %47, i32 %3)
  %.inv35 = icmp sgt i64 %46, 0
  %49 = trunc i32 %48 to i16
  %50 = add i16 %49, -1
  %51 = select i1 %.inv35, i16 %50, i16 0
  br label %54

52:                                               ; preds = %53
  ret i32 1

53:                                               ; preds = %54
  %indvars.iv.next40 = add nuw nsw i64 %indvars.iv39, 1
  %exitcond42.not = icmp eq i64 %indvars.iv.next40, 4
  br i1 %exitcond42.not, label %52, label %.preheader, !llvm.loop !203

54:                                               ; preds = %.preheader, %54
  %indvars.iv = phi i64 [ 0, %.preheader ], [ %indvars.iv.next, %54 ]
  %55 = add nsw i64 %indvars.iv, %44
  %56 = trunc nsw i64 %55 to i32
  %57 = tail call i32 @llvm.smin.i32(i32 %56, i32 %2)
  %.inv = icmp sgt i64 %55, 0
  %58 = trunc i32 %57 to i16
  %59 = add i16 %58, -1
  %60 = select i1 %.inv, i16 %59, i16 0
  %61 = getelementptr inbounds nuw [4 x i16], ptr %4, i64 %indvars.iv39, i64 %indvars.iv
  store i16 %60, ptr %61, align 2, !tbaa !15
  %62 = getelementptr inbounds nuw [4 x i16], ptr %5, i64 %indvars.iv39, i64 %indvars.iv
  store i16 %51, ptr %62, align 2, !tbaa !15
  %indvars.iv.next = add nuw nsw i64 %indvars.iv, 1
  %exitcond.not = icmp eq i64 %indvars.iv.next, 4
  br i1 %exitcond.not, label %53, label %54, !llvm.loop !204
}